; Function Attrs: mustprogress nounwind uwtable
define dso_local void @_ZN4llvm11getModeNameB5cxx11Ej(ptr dead_on_unwind noalias writable sret(%"class.std::__cxx11::basic_string") align 8 %0, i32 noundef %1) local_unnamed_addr #0 {
  %3 = alloca %"class.std::allocator", align 1
  %4 = alloca %"class.llvm::Twine", align 8
  %5 = icmp eq i32 %1, 0
  br i1 %5, label %6, label %_ZN4llvmplERKNS_5TwineES2_.exit

6:                                                ; preds = %2
  call void @_ZNSaIcEC1Ev(ptr noundef nonnull align 1 dereferenceable(1) %3) #15
  %7 = call noundef ptr @_ZNSt7__cxx1112basic_stringIcSt11char_traitsIcESaIcEE13_M_local_dataEv(ptr noundef nonnull align 8 dereferenceable(32) %0) #15
  call void @_ZNSt7__cxx1112basic_stringIcSt11char_traitsIcESaIcEE12_Alloc_hiderC1EPcRKS3_(ptr noundef nonnull align 8 dereferenceable(8) %0, ptr noundef %7, ptr noundef nonnull align 1 dereferenceable(1) %3) #15
  call void @_ZNSt7__cxx1112basic_stringIcSt11char_traitsIcESaIcEE12_M_constructIPKcEEvT_S8_St20forward_iterator_tag(ptr noundef nonnull align 8 dereferenceable(32) %0, ptr noundef nonnull @.str, ptr noundef nonnull getelementptr inbounds (i8, ptr @.str, i64 1))
  call void @_ZNSaIcED1Ev(ptr noundef nonnull align 1 dereferenceable(1) %3) #15
  br label %12

_ZN4llvmplERKNS_5TwineES2_.exit:                  ; preds = %2
  %.sroa.0.0.insert.ext = zext i32 %1 to i64
  %8 = inttoptr i64 %.sroa.0.0.insert.ext to ptr
  store ptr inttoptr (i64 109 to ptr), ptr %4, align 8, !alias.scope !4
  %9 = getelementptr inbounds nuw i8, ptr %4, i64 16
  store ptr %8, ptr %9, align 8, !alias.scope !4
  %10 = getelementptr inbounds nuw i8, ptr %4, i64 32
  store i8 8, ptr %10, align 8, !alias.scope !4
  %11 = getelementptr inbounds nuw i8, ptr %4, i64 33
  store i8 9, ptr %11, align 1, !alias.scope !4
  call void @_ZNK4llvm5Twine3strB5cxx11Ev(ptr dead_on_unwind writable sret(%"class.std::__cxx11::basic_string") align 8 %0, ptr noundef nonnull align 8 dereferenceable(34) %4) #15
  br label %12

12:                                               ; preds = %_ZN4llvmplERKNS_5TwineES2_.exit, %6
  ret void
}